target datalayout = "e-m:e-p270:32:32-p271:32:32-p272:64:64-i64:64-i128:128-f80:128-n8:16:32:64-S128"
target triple = "x86_64-pc-linux-gnu"

%union.pthread_mutex_t = type { %struct.__pthread_mutex_s }
%struct.__pthread_mutex_s = type { i32, i32, i32, i32, i32, i16, i16, %struct.__pthread_internal_list }
%struct.__pthread_internal_list = type { ptr, ptr }
%struct.slurm_bb_ops = type { ptr, ptr, ptr, ptr, ptr, ptr, ptr, ptr, ptr, ptr, ptr, ptr, ptr, ptr, ptr, ptr, ptr, ptr, ptr, ptr }
%struct.timeval = type { i64, i64 }

@g_context_lock = internal global %union.pthread_mutex_t zeroinitializer, align 8
@.str.1 = private unnamed_addr constant [29 x i8] c"%s: pthread_mutex_lock(): %m\00", align 1
@g_context_cnt = internal global i32 -1, align 4
@ops = internal global ptr null, align 8
@.str.8 = private unnamed_addr constant [31 x i8] c"%s: pthread_mutex_unlock(): %m\00", align 1
@__func__.bb_g_job_test_stage_in = private unnamed_addr constant [23 x i8] c"bb_g_job_test_stage_in\00", align 1

; Function Attrs: nounwind uwtable
define dso_local i32 @bb_g_job_test_stage_in(ptr noundef %0, i1 noundef zeroext %1) #0 {
  %3 = alloca ptr, align 8
  %4 = alloca i8, align 1
  %5 = alloca %struct.timeval, align 8
  %6 = alloca %struct.timeval, align 8
  %7 = alloca [20 x i8], align 16
  %8 = alloca i64, align 8
  %9 = alloca i32, align 4
  %10 = alloca i32, align 4
  %11 = alloca i32, align 4
  %12 = alloca i32, align 4
  %13 = alloca i32, align 4
  store ptr %0, ptr %3, align 8
  %14 = zext i1 %1 to i8
  store i8 %14, ptr %4, align 1
  call void @llvm.lifetime.start.p0(i64 16, ptr %5) #7
  call void @llvm.lifetime.start.p0(i64 16, ptr %6) #7
  call void @llvm.lifetime.start.p0(i64 20, ptr %7) #7
  call void @llvm.memset.p0.i64(ptr align 16 %7, i8 0, i64 20, i1 false)
  call void @llvm.lifetime.start.p0(i64 8, ptr %8) #7
  call void @llvm.lifetime.start.p0(i64 4, ptr %9) #7
  call void @llvm.lifetime.start.p0(i64 4, ptr %10) #7
  store i32 1, ptr %10, align 4
  call void @llvm.lifetime.start.p0(i64 4, ptr %11) #7
  %15 = call i32 @gettimeofday(ptr noundef %5, ptr noundef null) #7
  br label %16

16:                                               ; preds = %2
  call void @llvm.lifetime.start.p0(i64 4, ptr %12) #7
  %17 = call i32 @pthread_mutex_lock(ptr noundef @g_context_lock) #7
  store i32 %17, ptr %12, align 4
  %18 = load i32, ptr %12, align 4
  %19 = icmp ne i32 %18, 0
  br i1 %19, label %20, label %23

20:                                               ; preds = %16
  %21 = load i32, ptr %12, align 4
  %22 = call ptr @__errno_location() #8
  store i32 %21, ptr %22, align 4
  call void (ptr, ...) @fatal_abort(ptr noundef @.str.1, ptr noundef @__func__.bb_g_job_test_stage_in) #9
  unreachable

23:                                               ; preds = %16
  call void @llvm.lifetime.end.p0(i64 4, ptr %12) #7
  br label %24

24:                                               ; preds = %23
  br label %25

25:                                               ; preds = %24
  store i32 0, ptr %9, align 4
  br label %26

26:                                               ; preds = %50, %25
  %27 = load i32, ptr %9, align 4
  %28 = load i32, ptr @g_context_cnt, align 4
  %29 = icmp slt i32 %27, %28
  br i1 %29, label %30, label %53

30:                                               ; preds = %26
  %31 = load ptr, ptr @ops, align 8
  %32 = load i32, ptr %9, align 4
  %33 = sext i32 %32 to i64
  %34 = getelementptr inbounds %struct.slurm_bb_ops, ptr %31, i64 %33
  %35 = getelementptr inbounds nuw %struct.slurm_bb_ops, ptr %34, i32 0, i32 11
  %36 = load ptr, ptr %35, align 8
  %37 = load ptr, ptr %3, align 8
  %38 = load i8, ptr %4, align 1, !range !12, !noundef !13
  %39 = trunc i8 %38 to i1
  %40 = call i32 %36(ptr noundef %37, i1 noundef zeroext %39)
  store i32 %40, ptr %11, align 4
  %41 = load i32, ptr %10, align 4
  %42 = load i32, ptr %11, align 4
  %43 = icmp slt i32 %41, %42
  br i1 %43, label %44, label %46

44:                                               ; preds = %30
  %45 = load i32, ptr %10, align 4
  br label %48

46:                                               ; preds = %30
  %47 = load i32, ptr %11, align 4
  br label %48

48:                                               ; preds = %46, %44
  %49 = phi i32 [ %45, %44 ], [ %47, %46 ]
  store i32 %49, ptr %10, align 4
  br label %50

50:                                               ; preds = %48
  %51 = load i32, ptr %9, align 4
  %52 = add nsw i32 %51, 1
  store i32 %52, ptr %9, align 4
  br label %26, !llvm.loop !25

53:                                               ; preds = %26
  br label %54

54:                                               ; preds = %53
  call void @llvm.lifetime.start.p0(i64 4, ptr %13) #7
  %55 = call i32 @pthread_mutex_unlock(ptr noundef @g_context_lock) #7
  store i32 %55, ptr %13, align 4
  %56 = load i32, ptr %13, align 4
  %57 = icmp ne i32 %56, 0
  br i1 %57, label %58, label %61

58:                                               ; preds = %54
  %59 = load i32, ptr %13, align 4
  %60 = call ptr @__errno_location() #8
  store i32 %59, ptr %60, align 4
  call void (ptr, ...) @fatal_abort(ptr noundef @.str.8, ptr noundef @__func__.bb_g_job_test_stage_in) #9
  unreachable

61:                                               ; preds = %54
  call void @llvm.lifetime.end.p0(i64 4, ptr %13) #7
  br label %62

62:                                               ; preds = %61
  br label %63

63:                                               ; preds = %62
  br label %64

64:                                               ; preds = %63
  %65 = call i32 @gettimeofday(ptr noundef %6, ptr noundef null) #7
  %66 = getelementptr inbounds [20 x i8], ptr %7, i64 0, i64 0
  call void @slurm_diff_tv_str(ptr noundef %5, ptr noundef %6, ptr noundef %66, i32 noundef 20, ptr noundef @__func__.bb_g_job_test_stage_in, i64 noundef 0, ptr noundef %8)
  br label %67

67:                                               ; preds = %64
  br label %68

68:                                               ; preds = %67
  %69 = load i32, ptr %10, align 4
  call void @llvm.lifetime.end.p0(i64 4, ptr %11) #7
  call void @llvm.lifetime.end.p0(i64 4, ptr %10) #7
  call void @llvm.lifetime.end.p0(i64 4, ptr %9) #7
  call void @llvm.lifetime.end.p0(i64 8, ptr %8) #7
  call void @llvm.lifetime.end.p0(i64 20, ptr %7) #7
  call void @llvm.lifetime.end.p0(i64 16, ptr %6) #7
  call void @llvm.lifetime.end.p0(i64 16, ptr %5) #7
  ret i32 %69
}